target datalayout = "e-m:e-p270:32:32-p271:32:32-p272:64:64-i64:64-i128:128-f80:128-n8:16:32:64-S128"
target triple = "x86_64-pc-linux-gnu"

%"class.std::__1::pmr::memory_resource" = type { ptr }
%"class.std::__1::pmr::unsynchronized_pool_resource::__adhoc_pool" = type { ptr }
%"class.std::__1::pmr::unsynchronized_pool_resource" = type { %"class.std::__1::pmr::memory_resource", ptr, %"class.std::__1::pmr::unsynchronized_pool_resource::__adhoc_pool", ptr, i32, i32 }
%"struct.std::__1::pmr::pool_options" = type { i64, i64 }

; Function Attrs: mustprogress nounwind uwtable
define dso_local noundef i32 @_ZNKSt3__13pmr28unsynchronized_pool_resource22__log2_pool_block_sizeEi(ptr noundef nonnull align 8 dereferenceable(40) %0, i32 noundef %1) #0 align 2 {
  %3 = alloca ptr, align 8
  %4 = alloca i32, align 4
  store ptr %0, ptr %3, align 8, !tbaa !34
  store i32 %1, ptr %4, align 4, !tbaa !36
  %5 = load i32, ptr %4, align 4, !tbaa !36
  %6 = add nsw i32 %5, 3
  ret i32 %6
}

; Function Attrs: mustprogress uwtable
define dso_local noundef i64 @_ZNKSt3__13pmr28unsynchronized_pool_resource17__pool_block_sizeEi(ptr noundef nonnull align 8 dereferenceable(40) %0, i32 noundef %1) #5 align 2 {
  %3 = alloca ptr, align 8
  %4 = alloca i32, align 4
  store ptr %0, ptr %3, align 8, !tbaa !34
  store i32 %1, ptr %4, align 4, !tbaa !36
  %5 = load ptr, ptr %3, align 8
  %6 = load i32, ptr %4, align 4, !tbaa !36
  %7 = call noundef i32 @_ZNKSt3__13pmr28unsynchronized_pool_resource22__log2_pool_block_sizeEi(ptr noundef nonnull align 8 dereferenceable(40) %5, i32 noundef %6)
  %8 = zext i32 %7 to i64
  %9 = shl i64 1, %8
  ret i64 %9
}

; Function Attrs: inlinehint mustprogress nounwind uwtable
define linkonce_odr hidden void @_ZNSt3__13pmr12pool_optionsC2Ev(ptr noundef nonnull align 8 dereferenceable(16) %0) unnamed_addr #9 comdat align 2 {
  %2 = alloca ptr, align 8
  store ptr %0, ptr %2, align 8, !tbaa !43
  %3 = load ptr, ptr %2, align 8
  %4 = getelementptr inbounds nuw %"struct.std::__1::pmr::pool_options", ptr %3, i32 0, i32 0
  store i64 0, ptr %4, align 8, !tbaa !49
  %5 = getelementptr inbounds nuw %"struct.std::__1::pmr::pool_options", ptr %3, i32 0, i32 1
  store i64 0, ptr %5, align 8, !tbaa !47
  ret void
}

; Function Attrs: mustprogress nounwind willreturn memory(read) uwtable
define dso_local { i64, i64 } @_ZNKSt3__13pmr28unsynchronized_pool_resource7optionsEv(ptr noundef nonnull align 8 dereferenceable(40) %0) #10 align 2 {
  %2 = alloca %"struct.std::__1::pmr::pool_options", align 8
  %3 = alloca ptr, align 8
  store ptr %0, ptr %3, align 8, !tbaa !34
  %4 = load ptr, ptr %3, align 8
  call void @_ZNSt3__13pmr12pool_optionsC2Ev(ptr noundef nonnull align 8 dereferenceable(16) %2) #3
  %5 = getelementptr inbounds nuw %"class.std::__1::pmr::unsynchronized_pool_resource", ptr %4, i32 0, i32 5
  %6 = load i32, ptr %5, align 4, !tbaa !50
  %7 = zext i32 %6 to i64
  %8 = getelementptr inbounds nuw %"struct.std::__1::pmr::pool_options", ptr %2, i32 0, i32 0
  store i64 %7, ptr %8, align 8, !tbaa !49
  %9 = getelementptr inbounds nuw %"class.std::__1::pmr::unsynchronized_pool_resource", ptr %4, i32 0, i32 4
  %10 = load i32, ptr %9, align 8, !tbaa !38
  %11 = sub nsw i32 %10, 1
  %12 = call noundef i64 @_ZNKSt3__13pmr28unsynchronized_pool_resource17__pool_block_sizeEi(ptr noundef nonnull align 8 dereferenceable(40) %4, i32 noundef %11)
  %13 = getelementptr inbounds nuw %"struct.std::__1::pmr::pool_options", ptr %2, i32 0, i32 1
  store i64 %12, ptr %13, align 8, !tbaa !47
  %14 = load { i64, i64 }, ptr %2, align 8
  ret { i64, i64 } %14
}